; Function Attrs: nounwind uwtable
define internal void @ctrl_pad_btn_remove_event_handler(ptr noundef %0) #0 {
  %2 = tail call ptr @lv_event_get_user_data(ptr noundef %0) #2
  %3 = getelementptr inbounds nuw i8, ptr %2, i64 8
  %4 = load ptr, ptr %3, align 8, !tbaa !26
  %.not = icmp eq ptr %4, null
  br i1 %.not, label %10, label %5

5:                                                ; preds = %1
  %6 = load ptr, ptr %2, align 8, !tbaa !27
  %7 = icmp eq ptr %4, %6
  br i1 %7, label %8, label %9

8:                                                ; preds = %5
  tail call void @lv_obj_clean(ptr noundef %6) #2
  br label %10

9:                                                ; preds = %5
  tail call void @lv_obj_delete(ptr noundef nonnull %4) #2
  store ptr null, ptr %3, align 8, !tbaa !26
  br label %10

10:                                               ; preds = %8, %9, %1
  ret void
}